target datalayout = "e-m:e-p270:32:32-p271:32:32-p272:64:64-i64:64-i128:128-f80:128-n8:16:32:64-S128"
target triple = "x86_64-pc-linux-gnu"

%"class.icu_77::internal::LocalOpenPointer" = type { %"class.icu_77::LocalPointerBase" }
%"class.icu_77::LocalPointerBase" = type { ptr }

@.str.1 = private unnamed_addr constant [14 x i8] c"icudt77l-curr\00", align 1
@_ZL13CURRENCY_DATA = internal constant [17 x i8] c"supplementalData\00", align 16
@_ZL16LAST_RESORT_DATA = internal constant [4 x i32] [i32 2, i32 0, i32 2, i32 0], align 16
@_ZL13CURRENCY_META = internal constant [13 x i8] c"CurrencyMeta\00", align 1
@_ZL12DEFAULT_META = internal constant [8 x i8] c"DEFAULT\00", align 1

; Function Attrs: mustprogress nounwind uwtable
define linkonce_odr void @_ZN6icu_7716LocalPointerBaseI15UResourceBundleEC2EPS1_(ptr noundef nonnull align 8 dereferenceable(8) %0, ptr noundef %1) unnamed_addr #0 comdat align 2 {
  %3 = alloca ptr, align 8
  %4 = alloca ptr, align 8
  store ptr %0, ptr %3, align 8, !tbaa !70
  store ptr %1, ptr %4, align 8, !tbaa !53
  %5 = load ptr, ptr %3, align 8
  %6 = getelementptr inbounds nuw %"class.icu_77::LocalPointerBase", ptr %5, i32 0, i32 0
  %7 = load ptr, ptr %4, align 8, !tbaa !53
  store ptr %7, ptr %6, align 8, !tbaa !72
  ret void
}

; Function Attrs: mustprogress uwtable
define linkonce_odr void @_ZN6icu_778internal16LocalOpenPointerI15UResourceBundleXadL_Z13ures_close_77EEE12adoptInsteadEPS2_(ptr noundef nonnull align 8 dereferenceable(8) %0, ptr noundef %1) #1 comdat align 2 {
  %3 = alloca ptr, align 8
  %4 = alloca ptr, align 8
  store ptr %0, ptr %3, align 8, !tbaa !68
  store ptr %1, ptr %4, align 8, !tbaa !53
  %5 = load ptr, ptr %3, align 8
  %6 = getelementptr inbounds nuw %"class.icu_77::LocalPointerBase", ptr %5, i32 0, i32 0
  %7 = load ptr, ptr %6, align 8, !tbaa !72
  %8 = icmp ne ptr %7, null
  br i1 %8, label %9, label %12

9:                                                ; preds = %2
  %10 = getelementptr inbounds nuw %"class.icu_77::LocalPointerBase", ptr %5, i32 0, i32 0
  %11 = load ptr, ptr %10, align 8, !tbaa !72
  call void @ures_close_77(ptr noundef %11)
  br label %12

12:                                               ; preds = %9, %2
  %13 = load ptr, ptr %4, align 8, !tbaa !53
  %14 = getelementptr inbounds nuw %"class.icu_77::LocalPointerBase", ptr %5, i32 0, i32 0
  store ptr %13, ptr %14, align 8, !tbaa !72
  ret void
}

; Function Attrs: inlinehint mustprogress uwtable
define internal noundef ptr @_ZL15myUCharsToCharsPcPKDs(ptr noundef %0, ptr noundef %1) #3 {
  %3 = alloca ptr, align 8
  %4 = alloca ptr, align 8
  store ptr %0, ptr %3, align 8, !tbaa !17
  store ptr %1, ptr %4, align 8, !tbaa !39
  %5 = load ptr, ptr %4, align 8, !tbaa !39
  %6 = load ptr, ptr %3, align 8, !tbaa !17
  call void @u_UCharsToChars_77(ptr noundef %5, ptr noundef %6, i32 noundef 3)
  %7 = load ptr, ptr %3, align 8, !tbaa !17
  %8 = getelementptr inbounds i8, ptr %7, i64 3
  store i8 0, ptr %8, align 1, !tbaa !47
  %9 = load ptr, ptr %3, align 8, !tbaa !17
  ret ptr %9
}

; Function Attrs: mustprogress nounwind uwtable
define linkonce_odr noundef ptr @_ZNK6icu_7716LocalPointerBaseI15UResourceBundleE8getAliasEv(ptr noundef nonnull align 8 dereferenceable(8) %0) #0 comdat align 2 {
  %2 = alloca ptr, align 8
  store ptr %0, ptr %2, align 8, !tbaa !70
  %3 = load ptr, ptr %2, align 8
  %4 = getelementptr inbounds nuw %"class.icu_77::LocalPointerBase", ptr %3, i32 0, i32 0
  %5 = load ptr, ptr %4, align 8, !tbaa !72
  ret ptr %5
}

; Function Attrs: inlinehint mustprogress nounwind uwtable
define internal noundef signext i8 @_ZL9U_FAILURE10UErrorCode(i32 noundef %0) #2 {
  %2 = alloca i32, align 4
  store i32 %0, ptr %2, align 4, !tbaa !15
  %3 = load i32, ptr %2, align 4, !tbaa !15
  %4 = icmp sgt i32 %3, 0
  %5 = zext i1 %4 to i8
  ret i8 %5
}

; Function Attrs: mustprogress uwtable
define linkonce_odr void @_ZN6icu_778internal16LocalOpenPointerI15UResourceBundleXadL_Z13ures_close_77EEEC2EPS2_(ptr noundef nonnull align 8 dereferenceable(8) %0, ptr noundef %1) unnamed_addr #1 comdat align 2 {
  %3 = alloca ptr, align 8
  %4 = alloca ptr, align 8
  store ptr %0, ptr %3, align 8, !tbaa !68
  store ptr %1, ptr %4, align 8, !tbaa !53
  %5 = load ptr, ptr %3, align 8
  %6 = load ptr, ptr %4, align 8, !tbaa !53
  call void @_ZN6icu_7716LocalPointerBaseI15UResourceBundleEC2EPS1_(ptr noundef nonnull align 8 dereferenceable(8) %5, ptr noundef %6)
  ret void
}

; Function Attrs: inlinehint mustprogress nounwind uwtable
define internal noundef signext i8 @_ZL9U_SUCCESS10UErrorCode(i32 noundef %0) #2 {
  %2 = alloca i32, align 4
  store i32 %0, ptr %2, align 4, !tbaa !15
  %3 = load i32, ptr %2, align 4, !tbaa !15
  %4 = icmp sle i32 %3, 0
  %5 = zext i1 %4 to i8
  ret i8 %5
}

; Function Attrs: mustprogress uwtable
define internal noundef ptr @_ZL13_findMetaDataPKDsR10UErrorCode(ptr noundef %0, ptr noundef nonnull align 4 dereferenceable(4) %1) #1 personality ptr @__gxx_personality_v0 {
  %3 = alloca ptr, align 8
  %4 = alloca ptr, align 8
  %5 = alloca ptr, align 8
  %6 = alloca ptr, align 8
  %7 = alloca %"class.icu_77::internal::LocalOpenPointer", align 8
  %8 = alloca i32, align 4
  %9 = alloca [4 x i8], align 1
  %10 = alloca i32, align 4
  %11 = alloca %"class.icu_77::internal::LocalOpenPointer", align 8
  %12 = alloca ptr, align 8
  %13 = alloca i32, align 4
  %14 = alloca i32, align 4
  %15 = alloca ptr, align 8
  store ptr %0, ptr %4, align 8, !tbaa !39
  store ptr %1, ptr %5, align 8, !tbaa !22
  %16 = load ptr, ptr %4, align 8, !tbaa !39
  %17 = icmp eq ptr %16, null
  br i1 %17, label %23, label %18

18:                                               ; preds = %2
  %19 = load ptr, ptr %4, align 8, !tbaa !39
  %20 = load i16, ptr %19, align 2, !tbaa !96
  %21 = zext i16 %20 to i32
  %22 = icmp eq i32 %21, 0
  br i1 %22, label %23, label %31

23:                                               ; preds = %18, %2
  %24 = load ptr, ptr %5, align 8, !tbaa !22
  %25 = load i32, ptr %24, align 4, !tbaa !15
  %26 = call noundef signext i8 @_ZL9U_SUCCESS10UErrorCode(i32 noundef %25)
  %27 = icmp ne i8 %26, 0
  br i1 %27, label %28, label %30

28:                                               ; preds = %23
  %29 = load ptr, ptr %5, align 8, !tbaa !22
  store i32 1, ptr %29, align 4, !tbaa !15
  br label %30

30:                                               ; preds = %28, %23
  store ptr @_ZL16LAST_RESORT_DATA, ptr %3, align 8
  br label %109

31:                                               ; preds = %18
  call void @llvm.lifetime.start.p0(i64 8, ptr %6) #12
  %32 = load ptr, ptr %5, align 8, !tbaa !22
  %33 = call ptr @ures_openDirect_77(ptr noundef @.str.1, ptr noundef @_ZL13CURRENCY_DATA, ptr noundef %32)
  store ptr %33, ptr %6, align 8, !tbaa !53
  call void @llvm.lifetime.start.p0(i64 8, ptr %7) #12
  %34 = load ptr, ptr %6, align 8, !tbaa !53
  %35 = load ptr, ptr %6, align 8, !tbaa !53
  %36 = load ptr, ptr %5, align 8, !tbaa !22
  %37 = call ptr @ures_getByKey_77(ptr noundef %34, ptr noundef @_ZL13CURRENCY_META, ptr noundef %35, ptr noundef %36)
  call void @_ZN6icu_778internal16LocalOpenPointerI15UResourceBundleXadL_Z13ures_close_77EEEC2EPS2_(ptr noundef nonnull align 8 dereferenceable(8) %7, ptr noundef %37)
  %38 = load ptr, ptr %5, align 8, !tbaa !22
  %39 = load i32, ptr %38, align 4, !tbaa !15
  %40 = call noundef signext i8 @_ZL9U_FAILURE10UErrorCode(i32 noundef %39)
  %41 = icmp ne i8 %40, 0
  br i1 %41, label %42, label %43

42:                                               ; preds = %31
  store ptr @_ZL16LAST_RESORT_DATA, ptr %3, align 8
  store i32 1, ptr %8, align 4
  br label %108

43:                                               ; preds = %31
  call void @llvm.lifetime.start.p0(i64 4, ptr %9) #12
  call void @llvm.lifetime.start.p0(i64 4, ptr %10) #12
  store i32 0, ptr %10, align 4, !tbaa !15
  call void @llvm.lifetime.start.p0(i64 8, ptr %11) #12
  %44 = invoke noundef ptr @_ZNK6icu_7716LocalPointerBaseI15UResourceBundleE8getAliasEv(ptr noundef nonnull align 8 dereferenceable(8) %7)
          to label %45 unwind label %68

45:                                               ; preds = %43
  %46 = getelementptr inbounds [4 x i8], ptr %9, i64 0, i64 0
  %47 = load ptr, ptr %4, align 8, !tbaa !39
  %48 = invoke noundef ptr @_ZL15myUCharsToCharsPcPKDs(ptr noundef %46, ptr noundef %47)
          to label %49 unwind label %68

49:                                               ; preds = %45
  %50 = invoke ptr @ures_getByKey_77(ptr noundef %44, ptr noundef %48, ptr noundef null, ptr noundef %10)
          to label %51 unwind label %68

51:                                               ; preds = %49
  invoke void @_ZN6icu_778internal16LocalOpenPointerI15UResourceBundleXadL_Z13ures_close_77EEEC2EPS2_(ptr noundef nonnull align 8 dereferenceable(8) %11, ptr noundef %50)
          to label %52 unwind label %68

52:                                               ; preds = %51
  %53 = load i32, ptr %10, align 4, !tbaa !15
  %54 = call noundef signext i8 @_ZL9U_FAILURE10UErrorCode(i32 noundef %53)
  %55 = icmp ne i8 %54, 0
  br i1 %55, label %56, label %77

56:                                               ; preds = %52
  %57 = invoke noundef ptr @_ZNK6icu_7716LocalPointerBaseI15UResourceBundleE8getAliasEv(ptr noundef nonnull align 8 dereferenceable(8) %7)
          to label %58 unwind label %72

58:                                               ; preds = %56
  %59 = load ptr, ptr %5, align 8, !tbaa !22
  %60 = invoke ptr @ures_getByKey_77(ptr noundef %57, ptr noundef @_ZL12DEFAULT_META, ptr noundef null, ptr noundef %59)
          to label %61 unwind label %72

61:                                               ; preds = %58
  invoke void @_ZN6icu_778internal16LocalOpenPointerI15UResourceBundleXadL_Z13ures_close_77EEE12adoptInsteadEPS2_(ptr noundef nonnull align 8 dereferenceable(8) %11, ptr noundef %60)
          to label %62 unwind label %72

62:                                               ; preds = %61
  %63 = load ptr, ptr %5, align 8, !tbaa !22
  %64 = load i32, ptr %63, align 4, !tbaa !15
  %65 = call noundef signext i8 @_ZL9U_FAILURE10UErrorCode(i32 noundef %64)
  %66 = icmp ne i8 %65, 0
  br i1 %66, label %67, label %76

67:                                               ; preds = %62
  store ptr @_ZL16LAST_RESORT_DATA, ptr %3, align 8
  store i32 1, ptr %8, align 4
  br label %105

68:                                               ; preds = %51, %49, %45, %43
  %69 = landingpad { ptr, i32 }
          cleanup
  %70 = extractvalue { ptr, i32 } %69, 0
  store ptr %70, ptr %12, align 8
  %71 = extractvalue { ptr, i32 } %69, 1
  store i32 %71, ptr %13, align 4
  br label %107

72:                                               ; preds = %61, %58, %56
  %73 = landingpad { ptr, i32 }
          cleanup
  %74 = extractvalue { ptr, i32 } %73, 0
  store ptr %74, ptr %12, align 8
  %75 = extractvalue { ptr, i32 } %73, 1
  store i32 %75, ptr %13, align 4
  br label %106

76:                                               ; preds = %62
  br label %77

77:                                               ; preds = %76, %52
  call void @llvm.lifetime.start.p0(i64 4, ptr %14) #12
  call void @llvm.lifetime.start.p0(i64 8, ptr %15) #12
  %78 = invoke noundef ptr @_ZNK6icu_7716LocalPointerBaseI15UResourceBundleE8getAliasEv(ptr noundef nonnull align 8 dereferenceable(8) %11)
          to label %79 unwind label %97

79:                                               ; preds = %77
  %80 = load ptr, ptr %5, align 8, !tbaa !22
  %81 = invoke ptr @ures_getIntVector_77(ptr noundef %78, ptr noundef %14, ptr noundef %80)
          to label %82 unwind label %97

82:                                               ; preds = %79
  store ptr %81, ptr %15, align 8, !tbaa !20
  %83 = load ptr, ptr %5, align 8, !tbaa !22
  %84 = load i32, ptr %83, align 4, !tbaa !15
  %85 = call noundef signext i8 @_ZL9U_FAILURE10UErrorCode(i32 noundef %84)
  %86 = icmp ne i8 %85, 0
  br i1 %86, label %90, label %87

87:                                               ; preds = %82
  %88 = load i32, ptr %14, align 4, !tbaa !14
  %89 = icmp ne i32 %88, 4
  br i1 %89, label %90, label %102

90:                                               ; preds = %87, %82
  %91 = load ptr, ptr %5, align 8, !tbaa !22
  %92 = load i32, ptr %91, align 4, !tbaa !15
  %93 = call noundef signext i8 @_ZL9U_SUCCESS10UErrorCode(i32 noundef %92)
  %94 = icmp ne i8 %93, 0
  br i1 %94, label %95, label %101

95:                                               ; preds = %90
  %96 = load ptr, ptr %5, align 8, !tbaa !22
  store i32 3, ptr %96, align 4, !tbaa !15
  br label %101

97:                                               ; preds = %79, %77
  %98 = landingpad { ptr, i32 }
          cleanup
  %99 = extractvalue { ptr, i32 } %98, 0
  store ptr %99, ptr %12, align 8
  %100 = extractvalue { ptr, i32 } %98, 1
  store i32 %100, ptr %13, align 4
  call void @llvm.lifetime.end.p0(i64 8, ptr %15) #12
  call void @llvm.lifetime.end.p0(i64 4, ptr %14) #12
  br label %106

101:                                              ; preds = %95, %90
  store ptr @_ZL16LAST_RESORT_DATA, ptr %3, align 8
  store i32 1, ptr %8, align 4
  br label %104

102:                                              ; preds = %87
  %103 = load ptr, ptr %15, align 8, !tbaa !20
  store ptr %103, ptr %3, align 8
  store i32 1, ptr %8, align 4
  br label %104

104:                                              ; preds = %102, %101
  call void @llvm.lifetime.end.p0(i64 8, ptr %15) #12
  call void @llvm.lifetime.end.p0(i64 4, ptr %14) #12
  br label %105

105:                                              ; preds = %104, %67
  call void @_ZN6icu_778internal16LocalOpenPointerI15UResourceBundleXadL_Z13ures_close_77EEED2Ev(ptr noundef nonnull align 8 dereferenceable(8) %11) #12
  call void @llvm.lifetime.end.p0(i64 8, ptr %11) #12
  call void @llvm.lifetime.end.p0(i64 4, ptr %10) #12
  call void @llvm.lifetime.end.p0(i64 4, ptr %9) #12
  br label %108

106:                                              ; preds = %97, %72
  call void @_ZN6icu_778internal16LocalOpenPointerI15UResourceBundleXadL_Z13ures_close_77EEED2Ev(ptr noundef nonnull align 8 dereferenceable(8) %11) #12
  br label %107

107:                                              ; preds = %106, %68
  call void @llvm.lifetime.end.p0(i64 8, ptr %11) #12
  call void @llvm.lifetime.end.p0(i64 4, ptr %10) #12
  call void @llvm.lifetime.end.p0(i64 4, ptr %9) #12
  call void @_ZN6icu_778internal16LocalOpenPointerI15UResourceBundleXadL_Z13ures_close_77EEED2Ev(ptr noundef nonnull align 8 dereferenceable(8) %7) #12
  call void @llvm.lifetime.end.p0(i64 8, ptr %7) #12
  call void @llvm.lifetime.end.p0(i64 8, ptr %6) #12
  br label %111

108:                                              ; preds = %105, %42
  call void @_ZN6icu_778internal16LocalOpenPointerI15UResourceBundleXadL_Z13ures_close_77EEED2Ev(ptr noundef nonnull align 8 dereferenceable(8) %7) #12
  call void @llvm.lifetime.end.p0(i64 8, ptr %7) #12
  call void @llvm.lifetime.end.p0(i64 8, ptr %6) #12
  br label %109

109:                                              ; preds = %108, %30
  %110 = load ptr, ptr %3, align 8
  ret ptr %110

111:                                              ; preds = %107
  %112 = load ptr, ptr %12, align 8
  %113 = load i32, ptr %13, align 4
  %114 = insertvalue { ptr, i32 } poison, ptr %112, 0
  %115 = insertvalue { ptr, i32 } %114, i32 %113, 1
  resume { ptr, i32 } %115
}