; Function Attrs: mustprogress uwtable
define internal fastcc noundef ptr @_ZL13_findMetaDataPKDsR10UErrorCode(ptr noundef %0, ptr noundef nonnull align 4 dereferenceable(4) %1) unnamed_addr #1 personality ptr @__gxx_personality_v0 {
  %3 = alloca %"class.icu_77::internal::LocalOpenPointer", align 8
  %4 = alloca [4 x i8], align 1
  %5 = alloca i32, align 4
  %6 = alloca %"class.icu_77::internal::LocalOpenPointer", align 8
  %7 = alloca i32, align 4
  %8 = icmp eq ptr %0, null
  br i1 %8, label %12, label %9

9:                                                ; preds = %2
  %10 = load i16, ptr %0, align 2, !tbaa !31
  %11 = icmp eq i16 %10, 0
  br i1 %11, label %12, label %16

12:                                               ; preds = %9, %2
  %13 = load i32, ptr %1, align 4, !tbaa !13
  %14 = icmp sgt i32 %13, 0
  br i1 %14, label %64, label %15

15:                                               ; preds = %12
  store i32 1, ptr %1, align 4, !tbaa !13
  br label %64

16:                                               ; preds = %9
  %17 = tail call ptr @ures_openDirect_77(ptr noundef nonnull @.str.1, ptr noundef nonnull @.str.9, ptr noundef nonnull %1)
  call void @llvm.lifetime.start.p0(i64 8, ptr nonnull %3) #20
  %18 = tail call ptr @ures_getByKey_77(ptr noundef %17, ptr noundef nonnull @_ZL13CURRENCY_META, ptr noundef %17, ptr noundef nonnull %1)
  store ptr %18, ptr %3, align 8, !tbaa !39
  %19 = load i32, ptr %1, align 4, !tbaa !13
  %20 = icmp slt i32 %19, 1
  br i1 %20, label %21, label %58

21:                                               ; preds = %16
  call void @llvm.lifetime.start.p0(i64 4, ptr nonnull %4) #20
  call void @llvm.lifetime.start.p0(i64 4, ptr nonnull %5) #20
  store i32 0, ptr %5, align 4, !tbaa !13
  call void @llvm.lifetime.start.p0(i64 8, ptr nonnull %6) #20
  invoke void @u_UCharsToChars_77(ptr noundef nonnull %0, ptr noundef nonnull %4, i32 noundef 3)
          to label %22 unwind label %35

22:                                               ; preds = %21
  %23 = getelementptr inbounds nuw i8, ptr %4, i64 3
  store i8 0, ptr %23, align 1, !tbaa !27
  %24 = invoke ptr @ures_getByKey_77(ptr noundef %18, ptr noundef nonnull %4, ptr noundef null, ptr noundef nonnull %5)
          to label %25 unwind label %35

25:                                               ; preds = %22
  store ptr %24, ptr %6, align 8, !tbaa !39
  %26 = load i32, ptr %5, align 4, !tbaa !13
  %27 = icmp slt i32 %26, 1
  br i1 %27, label %39, label %28

28:                                               ; preds = %25
  %29 = invoke ptr @ures_getByKey_77(ptr noundef %18, ptr noundef nonnull @_ZL12DEFAULT_META, ptr noundef null, ptr noundef nonnull %1)
          to label %30 unwind label %37

30:                                               ; preds = %28
  %.not.i = icmp eq ptr %24, null
  br i1 %.not.i, label %32, label %31

31:                                               ; preds = %30
  invoke void @ures_close_77(ptr noundef nonnull %24)
          to label %32 unwind label %37

32:                                               ; preds = %30, %31
  store ptr %29, ptr %6, align 8, !tbaa !39
  %33 = load i32, ptr %1, align 4, !tbaa !13
  %34 = icmp slt i32 %33, 1
  br i1 %34, label %39, label %50

35:                                               ; preds = %21, %22
  %36 = landingpad { ptr, i32 }
          cleanup
  br label %57

37:                                               ; preds = %31, %28
  %38 = landingpad { ptr, i32 }
          cleanup
  br label %56

39:                                               ; preds = %32, %25
  %.pr = phi ptr [ %29, %32 ], [ %24, %25 ]
  call void @llvm.lifetime.start.p0(i64 4, ptr nonnull %7) #20
  %40 = invoke ptr @ures_getIntVector_77(ptr noundef %.pr, ptr noundef nonnull %7, ptr noundef nonnull %1)
          to label %41 unwind label %47

41:                                               ; preds = %39
  %42 = load i32, ptr %1, align 4, !tbaa !13
  %43 = icmp sgt i32 %42, 0
  %44 = load i32, ptr %7, align 4
  %45 = icmp eq i32 %44, 4
  %not. = xor i1 %43, true
  %or.cond = select i1 %not., i1 %45, i1 false
  %brmerge = select i1 %43, i1 true, i1 %45
  %.mux = select i1 %or.cond, ptr %40, ptr @_ZL16LAST_RESORT_DATA
  br i1 %brmerge, label %49, label %46

46:                                               ; preds = %41
  store i32 3, ptr %1, align 4, !tbaa !13
  br label %49

47:                                               ; preds = %39
  %48 = landingpad { ptr, i32 }
          cleanup
  call void @llvm.lifetime.end.p0(i64 4, ptr nonnull %7) #20
  br label %56

49:                                               ; preds = %41, %46
  %.3 = phi ptr [ @_ZL16LAST_RESORT_DATA, %46 ], [ %.mux, %41 ]
  call void @llvm.lifetime.end.p0(i64 4, ptr nonnull %7) #20
  br label %50

50:                                               ; preds = %32, %49
  %51 = phi ptr [ %29, %32 ], [ %.pr, %49 ]
  %.2 = phi ptr [ @_ZL16LAST_RESORT_DATA, %32 ], [ %.3, %49 ]
  %.not.i31 = icmp eq ptr %51, null
  br i1 %.not.i31, label %_ZN6icu_778internal16LocalOpenPointerI15UResourceBundleXadL_Z13ures_close_77EEED2Ev.exit, label %52

52:                                               ; preds = %50
  invoke void @ures_close_77(ptr noundef nonnull %51)
          to label %._ZN6icu_778internal16LocalOpenPointerI15UResourceBundleXadL_Z13ures_close_77EEED2Ev.exit_crit_edge unwind label %53

._ZN6icu_778internal16LocalOpenPointerI15UResourceBundleXadL_Z13ures_close_77EEED2Ev.exit_crit_edge: ; preds = %52
  %.pr34.pre = load ptr, ptr %3, align 8, !tbaa !39
  br label %_ZN6icu_778internal16LocalOpenPointerI15UResourceBundleXadL_Z13ures_close_77EEED2Ev.exit

53:                                               ; preds = %52
  %54 = landingpad { ptr, i32 }
          catch ptr null
  %55 = extractvalue { ptr, i32 } %54, 0
  call void @__clang_call_terminate(ptr %55) #22
  unreachable

_ZN6icu_778internal16LocalOpenPointerI15UResourceBundleXadL_Z13ures_close_77EEED2Ev.exit: ; preds = %._ZN6icu_778internal16LocalOpenPointerI15UResourceBundleXadL_Z13ures_close_77EEED2Ev.exit_crit_edge, %50
  %.pr34 = phi ptr [ %.pr34.pre, %._ZN6icu_778internal16LocalOpenPointerI15UResourceBundleXadL_Z13ures_close_77EEED2Ev.exit_crit_edge ], [ %18, %50 ]
  call void @llvm.lifetime.end.p0(i64 8, ptr nonnull %6) #20
  call void @llvm.lifetime.end.p0(i64 4, ptr nonnull %5) #20
  call void @llvm.lifetime.end.p0(i64 4, ptr nonnull %4) #20
  br label %58

56:                                               ; preds = %47, %37
  %.pn = phi { ptr, i32 } [ %48, %47 ], [ %38, %37 ]
  call void @_ZN6icu_778internal16LocalOpenPointerI15UResourceBundleXadL_Z13ures_close_77EEED2Ev(ptr noundef nonnull align 8 dereferenceable(8) %6) #20
  br label %57

57:                                               ; preds = %56, %35
  %.pn.pn = phi { ptr, i32 } [ %.pn, %56 ], [ %36, %35 ]
  call void @llvm.lifetime.end.p0(i64 8, ptr nonnull %6) #20
  call void @llvm.lifetime.end.p0(i64 4, ptr nonnull %5) #20
  call void @llvm.lifetime.end.p0(i64 4, ptr nonnull %4) #20
  call void @_ZN6icu_778internal16LocalOpenPointerI15UResourceBundleXadL_Z13ures_close_77EEED2Ev(ptr noundef nonnull align 8 dereferenceable(8) %3) #20
  call void @llvm.lifetime.end.p0(i64 8, ptr nonnull %3) #20
  resume { ptr, i32 } %.pn.pn

58:                                               ; preds = %16, %_ZN6icu_778internal16LocalOpenPointerI15UResourceBundleXadL_Z13ures_close_77EEED2Ev.exit
  %59 = phi ptr [ %18, %16 ], [ %.pr34, %_ZN6icu_778internal16LocalOpenPointerI15UResourceBundleXadL_Z13ures_close_77EEED2Ev.exit ]
  %.1 = phi ptr [ @_ZL16LAST_RESORT_DATA, %16 ], [ %.2, %_ZN6icu_778internal16LocalOpenPointerI15UResourceBundleXadL_Z13ures_close_77EEED2Ev.exit ]
  %.not.i32 = icmp eq ptr %59, null
  br i1 %.not.i32, label %_ZN6icu_778internal16LocalOpenPointerI15UResourceBundleXadL_Z13ures_close_77EEED2Ev.exit33, label %60

60:                                               ; preds = %58
  invoke void @ures_close_77(ptr noundef nonnull %59)
          to label %_ZN6icu_778internal16LocalOpenPointerI15UResourceBundleXadL_Z13ures_close_77EEED2Ev.exit33 unwind label %61

61:                                               ; preds = %60
  %62 = landingpad { ptr, i32 }
          catch ptr null
  %63 = extractvalue { ptr, i32 } %62, 0
  call void @__clang_call_terminate(ptr %63) #22
  unreachable

_ZN6icu_778internal16LocalOpenPointerI15UResourceBundleXadL_Z13ures_close_77EEED2Ev.exit33: ; preds = %58, %60
  call void @llvm.lifetime.end.p0(i64 8, ptr nonnull %3) #20
  br label %64

64:                                               ; preds = %12, %15, %_ZN6icu_778internal16LocalOpenPointerI15UResourceBundleXadL_Z13ures_close_77EEED2Ev.exit33
  %.0 = phi ptr [ %.1, %_ZN6icu_778internal16LocalOpenPointerI15UResourceBundleXadL_Z13ures_close_77EEED2Ev.exit33 ], [ @_ZL16LAST_RESORT_DATA, %15 ], [ @_ZL16LAST_RESORT_DATA, %12 ]
  ret ptr %.0
}